; Function Attrs: inlinehint mustprogress uwtable
define internal fastcc void @"_ZZN7xgboost10collective4Loop7ProcessEvENK3$_0clEONS0_6ResultE"(ptr %.0.val, ptr noundef nonnull align 8 captures(none) dereferenceable(8) %0) unnamed_addr #5 align 2 personality ptr @__gxx_personality_v0 {
  %2 = getelementptr inbounds nuw i8, ptr %.0.val, i64 216
  %3 = tail call noundef i32 @pthread_mutex_lock(ptr noundef nonnull align 8 dereferenceable(40) %2) #19
  %.not.i.i = icmp eq i32 %3, 0
  br i1 %.not.i.i, label %_ZNSt10lock_guardISt5mutexEC2ERS0_.exit, label %4

4:                                                ; preds = %1
  tail call void @_ZSt20__throw_system_errori(i32 noundef %3) #33
  unreachable

_ZNSt10lock_guardISt5mutexEC2ERS0_.exit:          ; preds = %1
  %5 = getelementptr inbounds nuw i8, ptr %.0.val, i64 208
  %6 = load ptr, ptr %0, align 8, !tbaa !129
  store ptr null, ptr %0, align 8, !tbaa !129
  %7 = load ptr, ptr %5, align 8, !tbaa !129
  store ptr %6, ptr %5, align 8, !tbaa !129
  %.not.i.i.i.i.i = icmp eq ptr %7, null
  br i1 %.not.i.i.i.i.i, label %_ZN7xgboost10collective6ResultaSEOS1_.exit, label %_ZNKSt14default_deleteIN7xgboost10collective6detail10ResultImplEEclEPS3_.exit.i.i.i.i.i

_ZNKSt14default_deleteIN7xgboost10collective6detail10ResultImplEEclEPS3_.exit.i.i.i.i.i: ; preds = %_ZNSt10lock_guardISt5mutexEC2ERS0_.exit
  tail call void @_ZN7xgboost10collective6detail10ResultImplD2Ev(ptr noundef nonnull align 8 dereferenceable(56) %7) #19
  tail call void @_ZdlPvm(ptr noundef nonnull %7, i64 noundef 56) #30
  br label %_ZN7xgboost10collective6ResultaSEOS1_.exit

_ZN7xgboost10collective6ResultaSEOS1_.exit:       ; preds = %_ZNSt10lock_guardISt5mutexEC2ERS0_.exit, %_ZNKSt14default_deleteIN7xgboost10collective6detail10ResultImplEEclEPS3_.exit.i.i.i.i.i
  %8 = tail call noundef i32 @pthread_mutex_unlock(ptr noundef nonnull align 8 dereferenceable(40) %2) #19
  ret void
}